target datalayout = "e-m:e-p270:32:32-p271:32:32-p272:64:64-i64:64-i128:128-f80:128-n8:16:32:64-S128"
target triple = "x86_64-pc-linux-gnu"

%struct.slurm_ops_t = type { ptr, ptr, ptr, ptr, ptr, ptr, ptr, ptr, ptr, ptr, ptr, ptr, ptr, ptr, ptr, ptr, ptr, ptr, ptr, ptr, ptr, ptr, ptr }

@plugin_inited = internal global i32 0, align 4
@ops = internal global %struct.slurm_ops_t zeroinitializer, align 8
@.str.38 = private unnamed_addr constant [45 x i8] c"%s:%d: %s: safe_write (%zu of %d) failed: %m\00", align 1
@.str.39 = private unnamed_addr constant [9 x i8] c"cgroup.c\00", align 1
@__func__.cgroup_write_state = private unnamed_addr constant [19 x i8] c"cgroup_write_state\00", align 1
@.str.40 = private unnamed_addr constant [48 x i8] c"%s:%d: %s: safe_write (%zu of %d) partial write\00", align 1

; Function Attrs: nounwind uwtable
define dso_local i32 @cgroup_write_state(i32 noundef %0) #0 {
  %2 = alloca i32, align 4
  %3 = alloca i32, align 4
  %4 = alloca i32, align 4
  %5 = alloca ptr, align 8
  %6 = alloca i64, align 8
  %7 = alloca ptr, align 8
  %8 = alloca i32, align 4
  %9 = alloca i32, align 4
  %10 = alloca i64, align 8
  %11 = alloca ptr, align 8
  %12 = alloca i32, align 4
  store i32 %0, ptr %3, align 4
  call void @llvm.lifetime.start.p0(i64 4, ptr %4) #9
  store i32 0, ptr %4, align 4
  call void @llvm.lifetime.start.p0(i64 8, ptr %5) #9
  store ptr null, ptr %5, align 8
  %13 = load i32, ptr @plugin_inited, align 4
  %14 = icmp eq i32 %13, 2
  br i1 %14, label %15, label %26

15:                                               ; preds = %1
  %16 = load ptr, ptr getelementptr inbounds nuw (%struct.slurm_ops_t, ptr @ops, i32 0, i32 20), align 8
  %17 = call ptr %16()
  store ptr %17, ptr %5, align 8
  %18 = load ptr, ptr %5, align 8
  %19 = icmp ne ptr %18, null
  br i1 %19, label %20, label %25

20:                                               ; preds = %15
  %21 = load ptr, ptr %5, align 8
  %22 = call i64 @strlen(ptr noundef %21) #12
  %23 = add i64 %22, 1
  %24 = trunc i64 %23 to i32
  store i32 %24, ptr %4, align 4
  br label %25

25:                                               ; preds = %20, %15
  br label %26

26:                                               ; preds = %25, %1
  br label %27

27:                                               ; preds = %26
  call void @llvm.lifetime.start.p0(i64 8, ptr %6) #9
  store i64 4, ptr %6, align 8
  call void @llvm.lifetime.start.p0(i64 8, ptr %7) #9
  store ptr %4, ptr %7, align 8
  call void @llvm.lifetime.start.p0(i64 4, ptr %8) #9
  br label %28

28:                                               ; preds = %84, %47, %27
  %29 = load i64, ptr %6, align 8
  %30 = icmp ugt i64 %29, 0
  br i1 %30, label %31, label %85

31:                                               ; preds = %28
  %32 = load i32, ptr %3, align 4
  %33 = load ptr, ptr %7, align 8
  %34 = load i64, ptr %6, align 8
  %35 = call i64 @write(i32 noundef %32, ptr noundef %33, i64 noundef %34)
  %36 = trunc i64 %35 to i32
  store i32 %36, ptr %8, align 4
  %37 = load i32, ptr %8, align 4
  %38 = icmp slt i32 %37, 0
  br i1 %38, label %39, label %60

39:                                               ; preds = %31
  %40 = call ptr @__errno_location() #10
  %41 = load i32, ptr %40, align 4
  %42 = icmp eq i32 %41, 11
  br i1 %42, label %47, label %43

43:                                               ; preds = %39
  %44 = call ptr @__errno_location() #10
  %45 = load i32, ptr %44, align 4
  %46 = icmp eq i32 %45, 4
  br i1 %46, label %47, label %48

47:                                               ; preds = %43, %39
  br label %28, !llvm.loop !10

48:                                               ; preds = %43
  br label %49

49:                                               ; preds = %48
  br label %50

50:                                               ; preds = %49
  %51 = call i32 @get_log_level()
  %52 = icmp sge i32 %51, 5
  br i1 %52, label %53, label %55

53:                                               ; preds = %50
  %54 = load i64, ptr %6, align 8
  call void (i32, ptr, ...) @log_var(i32 noundef 5, ptr noundef @.str.38, ptr noundef @.str.39, i32 noundef 629, ptr noundef @__func__.cgroup_write_state, i64 noundef %54, i32 noundef 4)
  br label %55

55:                                               ; preds = %53, %50
  br label %56

56:                                               ; preds = %55
  br label %57

57:                                               ; preds = %56
  br label %58

58:                                               ; preds = %57
  br label %59

59:                                               ; preds = %58
  store i32 10, ptr %9, align 4
  br label %86

60:                                               ; preds = %31
  %61 = load i32, ptr %8, align 4
  %62 = load ptr, ptr %7, align 8
  %63 = sext i32 %61 to i64
  %64 = getelementptr inbounds i8, ptr %62, i64 %63
  store ptr %64, ptr %7, align 8
  %65 = load i32, ptr %8, align 4
  %66 = sext i32 %65 to i64
  %67 = load i64, ptr %6, align 8
  %68 = sub i64 %67, %66
  store i64 %68, ptr %6, align 8
  %69 = load i64, ptr %6, align 8
  %70 = icmp ugt i64 %69, 0
  br i1 %70, label %71, label %83

71:                                               ; preds = %60
  br label %72

72:                                               ; preds = %71
  br label %73

73:                                               ; preds = %72
  %74 = call i32 @get_log_level()
  %75 = icmp sge i32 %74, 7
  br i1 %75, label %76, label %78

76:                                               ; preds = %73
  %77 = load i64, ptr %6, align 8
  call void (i32, ptr, ...) @log_var(i32 noundef 7, ptr noundef @.str.40, ptr noundef @.str.39, i32 noundef 629, ptr noundef @__func__.cgroup_write_state, i64 noundef %77, i32 noundef 4)
  br label %78

78:                                               ; preds = %76, %73
  br label %79

79:                                               ; preds = %78
  br label %80

80:                                               ; preds = %79
  br label %81

81:                                               ; preds = %80
  br label %82

82:                                               ; preds = %81
  br label %83

83:                                               ; preds = %82, %60
  br label %84

84:                                               ; preds = %83
  br label %28, !llvm.loop !10

85:                                               ; preds = %28
  store i32 0, ptr %9, align 4
  br label %86

86:                                               ; preds = %59, %85
  call void @llvm.lifetime.end.p0(i64 4, ptr %8) #9
  call void @llvm.lifetime.end.p0(i64 8, ptr %7) #9
  call void @llvm.lifetime.end.p0(i64 8, ptr %6) #9
  %87 = load i32, ptr %9, align 4
  switch i32 %87, label %165 [
    i32 0, label %88
    i32 10, label %164
  ]

88:                                               ; preds = %86
  br label %89

89:                                               ; preds = %88
  br label %90

90:                                               ; preds = %89
  %91 = load ptr, ptr %5, align 8
  %92 = icmp ne ptr %91, null
  br i1 %92, label %93, label %163

93:                                               ; preds = %90
  br label %94

94:                                               ; preds = %93
  call void @llvm.lifetime.start.p0(i64 8, ptr %10) #9
  %95 = load i32, ptr %4, align 4
  %96 = sext i32 %95 to i64
  store i64 %96, ptr %10, align 8
  call void @llvm.lifetime.start.p0(i64 8, ptr %11) #9
  %97 = load ptr, ptr %5, align 8
  store ptr %97, ptr %11, align 8
  call void @llvm.lifetime.start.p0(i64 4, ptr %12) #9
  br label %98

98:                                               ; preds = %156, %117, %94
  %99 = load i64, ptr %10, align 8
  %100 = icmp ugt i64 %99, 0
  br i1 %100, label %101, label %157

101:                                              ; preds = %98
  %102 = load i32, ptr %3, align 4
  %103 = load ptr, ptr %11, align 8
  %104 = load i64, ptr %10, align 8
  %105 = call i64 @write(i32 noundef %102, ptr noundef %103, i64 noundef %104)
  %106 = trunc i64 %105 to i32
  store i32 %106, ptr %12, align 4
  %107 = load i32, ptr %12, align 4
  %108 = icmp slt i32 %107, 0
  br i1 %108, label %109, label %131

109:                                              ; preds = %101
  %110 = call ptr @__errno_location() #10
  %111 = load i32, ptr %110, align 4
  %112 = icmp eq i32 %111, 11
  br i1 %112, label %117, label %113

113:                                              ; preds = %109
  %114 = call ptr @__errno_location() #10
  %115 = load i32, ptr %114, align 4
  %116 = icmp eq i32 %115, 4
  br i1 %116, label %117, label %118

117:                                              ; preds = %113, %109
  br label %98, !llvm.loop !13

118:                                              ; preds = %113
  br label %119

119:                                              ; preds = %118
  br label %120

120:                                              ; preds = %119
  %121 = call i32 @get_log_level()
  %122 = icmp sge i32 %121, 5
  br i1 %122, label %123, label %126

123:                                              ; preds = %120
  %124 = load i64, ptr %10, align 8
  %125 = load i32, ptr %4, align 4
  call void (i32, ptr, ...) @log_var(i32 noundef 5, ptr noundef @.str.38, ptr noundef @.str.39, i32 noundef 631, ptr noundef @__func__.cgroup_write_state, i64 noundef %124, i32 noundef %125)
  br label %126

126:                                              ; preds = %123, %120
  br label %127

127:                                              ; preds = %126
  br label %128

128:                                              ; preds = %127
  br label %129

129:                                              ; preds = %128
  br label %130

130:                                              ; preds = %129
  store i32 10, ptr %9, align 4
  br label %158

131:                                              ; preds = %101
  %132 = load i32, ptr %12, align 4
  %133 = load ptr, ptr %11, align 8
  %134 = sext i32 %132 to i64
  %135 = getelementptr inbounds i8, ptr %133, i64 %134
  store ptr %135, ptr %11, align 8
  %136 = load i32, ptr %12, align 4
  %137 = sext i32 %136 to i64
  %138 = load i64, ptr %10, align 8
  %139 = sub i64 %138, %137
  store i64 %139, ptr %10, align 8
  %140 = load i64, ptr %10, align 8
  %141 = icmp ugt i64 %140, 0
  br i1 %141, label %142, label %155

142:                                              ; preds = %131
  br label %143

143:                                              ; preds = %142
  br label %144

144:                                              ; preds = %143
  %145 = call i32 @get_log_level()
  %146 = icmp sge i32 %145, 7
  br i1 %146, label %147, label %150

147:                                              ; preds = %144
  %148 = load i64, ptr %10, align 8
  %149 = load i32, ptr %4, align 4
  call void (i32, ptr, ...) @log_var(i32 noundef 7, ptr noundef @.str.40, ptr noundef @.str.39, i32 noundef 631, ptr noundef @__func__.cgroup_write_state, i64 noundef %148, i32 noundef %149)
  br label %150

150:                                              ; preds = %147, %144
  br label %151

151:                                              ; preds = %150
  br label %152

152:                                              ; preds = %151
  br label %153

153:                                              ; preds = %152
  br label %154

154:                                              ; preds = %153
  br label %155

155:                                              ; preds = %154, %131
  br label %156

156:                                              ; preds = %155
  br label %98, !llvm.loop !13

157:                                              ; preds = %98
  store i32 0, ptr %9, align 4
  br label %158

158:                                              ; preds = %130, %157
  call void @llvm.lifetime.end.p0(i64 4, ptr %12) #9
  call void @llvm.lifetime.end.p0(i64 8, ptr %11) #9
  call void @llvm.lifetime.end.p0(i64 8, ptr %10) #9
  %159 = load i32, ptr %9, align 4
  switch i32 %159, label %165 [
    i32 0, label %160
    i32 10, label %164
  ]

160:                                              ; preds = %158
  br label %161

161:                                              ; preds = %160
  br label %162

162:                                              ; preds = %161
  br label %163

163:                                              ; preds = %162, %90
  store i32 0, ptr %2, align 4
  store i32 1, ptr %9, align 4
  br label %165

164:                                              ; preds = %158, %86
  store i32 -1, ptr %2, align 4
  store i32 1, ptr %9, align 4
  br label %165

165:                                              ; preds = %164, %163, %158, %86
  call void @llvm.lifetime.end.p0(i64 8, ptr %5) #9
  call void @llvm.lifetime.end.p0(i64 4, ptr %4) #9
  %166 = load i32, ptr %2, align 4
  ret i32 %166
}