; Function Attrs: nounwind uwtable
define dso_local range(i32 -1, 1) i32 @cgroup_write_state(i32 noundef %0) local_unnamed_addr #0 {
  %2 = alloca i32, align 4
  call void @llvm.lifetime.start.p0(i64 4, ptr nonnull %2) #12
  store i32 0, ptr %2, align 4
  %3 = load i32, ptr @plugin_inited, align 4
  %4 = icmp eq i32 %3, 2
  br i1 %4, label %5, label %12

5:                                                ; preds = %1
  %6 = load ptr, ptr getelementptr inbounds nuw (i8, ptr @ops, i64 160), align 8
  %7 = tail call ptr %6() #12
  %.not = icmp eq ptr %7, null
  br i1 %.not, label %12, label %8

8:                                                ; preds = %5
  %9 = tail call i64 @strlen(ptr noundef nonnull dereferenceable(1) %7) #15
  %10 = trunc i64 %9 to i32
  %11 = add i32 %10, 1
  store i32 %11, ptr %2, align 4
  br label %12

12:                                               ; preds = %1, %8, %5
  %13 = phi i32 [ %11, %8 ], [ 0, %5 ], [ 0, %1 ]
  %.033 = phi ptr [ %7, %8 ], [ null, %5 ], [ null, %1 ]
  br label %.lr.ph.split

.lr.ph.split:                                     ; preds = %.lr.ph.split.backedge, %12
  %.034.ph76 = phi ptr [ %2, %12 ], [ %26, %.lr.ph.split.backedge ]
  %.035.ph74 = phi i64 [ 4, %12 ], [ %27, %.lr.ph.split.backedge ]
  %14 = call i64 @write(i32 noundef %0, ptr noundef %.034.ph76, i64 noundef %.035.ph74) #12
  %15 = and i64 %14, 2147483648
  %.not4572 = icmp eq i64 %15, 0
  br i1 %.not4572, label %.split.us, label %.lr.ph73

.lr.ph73:                                         ; preds = %.lr.ph.split
  %16 = tail call ptr @__errno_location() #13
  br label %17

17:                                               ; preds = %.lr.ph73, %19
  %18 = load i32, ptr %16, align 4
  switch i32 %18, label %.split67.us [
    i32 11, label %19
    i32 4, label %19
  ]

19:                                               ; preds = %17, %17
  %20 = call i64 @write(i32 noundef %0, ptr noundef %.034.ph76, i64 noundef %.035.ph74) #12
  %21 = and i64 %20, 2147483648
  %.not45 = icmp eq i64 %21, 0
  br i1 %.not45, label %.split.us, label %17

.split67.us:                                      ; preds = %17
  %22 = tail call i32 @get_log_level() #12
  %23 = icmp sgt i32 %22, 4
  br i1 %23, label %24, label %.thread

24:                                               ; preds = %.split67.us
  tail call void (i32, ptr, ...) @log_var(i32 noundef 5, ptr noundef nonnull @.str.38, ptr noundef nonnull @.str.39, i32 noundef 629, ptr noundef nonnull @__func__.cgroup_write_state, i64 noundef %.035.ph74, i32 noundef 4) #12
  br label %.thread

.split.us:                                        ; preds = %19, %.lr.ph.split
  %.us-phi = phi i64 [ %14, %.lr.ph.split ], [ %20, %19 ]
  %25 = and i64 %.us-phi, 2147483647
  %26 = getelementptr inbounds nuw i8, ptr %.034.ph76, i64 %25
  %27 = sub i64 %.035.ph74, %25
  %.not46 = icmp eq i64 %27, 0
  br i1 %.not46, label %.outer60._crit_edge, label %28

28:                                               ; preds = %.split.us
  %29 = tail call i32 @get_log_level() #12
  %30 = icmp sgt i32 %29, 6
  br i1 %30, label %31, label %.lr.ph.split.backedge

31:                                               ; preds = %28
  tail call void (i32, ptr, ...) @log_var(i32 noundef 7, ptr noundef nonnull @.str.40, ptr noundef nonnull @.str.39, i32 noundef 629, ptr noundef nonnull @__func__.cgroup_write_state, i64 noundef %27, i32 noundef 4) #12
  br label %.lr.ph.split.backedge

.lr.ph.split.backedge:                            ; preds = %31, %28
  br label %.lr.ph.split, !llvm.loop !10

.outer60._crit_edge:                              ; preds = %.split.us
  %.not47 = icmp eq ptr %.033, null
  %.not4892 = icmp eq i32 %13, 0
  %or.cond = select i1 %.not47, i1 true, i1 %.not4892
  br i1 %or.cond, label %.thread, label %.lr.ph79.preheader

.lr.ph79.preheader:                               ; preds = %.outer60._crit_edge
  %32 = sext i32 %13 to i64
  br label %.lr.ph79.split

.lr.ph79.split:                                   ; preds = %.lr.ph79.split.backedge, %.lr.ph79.preheader
  %.030.ph95 = phi ptr [ %.033, %.lr.ph79.preheader ], [ %45, %.lr.ph79.split.backedge ]
  %.031.ph93 = phi i64 [ %32, %.lr.ph79.preheader ], [ %46, %.lr.ph79.split.backedge ]
  %33 = tail call i64 @write(i32 noundef %0, ptr noundef %.030.ph95, i64 noundef %.031.ph93) #12
  %34 = and i64 %33, 2147483648
  %.not4989 = icmp eq i64 %34, 0
  br i1 %.not4989, label %.split81.us, label %.lr.ph90

.lr.ph90:                                         ; preds = %.lr.ph79.split
  %35 = tail call ptr @__errno_location() #13
  br label %36

36:                                               ; preds = %.lr.ph90, %38
  %37 = load i32, ptr %35, align 4
  switch i32 %37, label %.split84.us [
    i32 11, label %38
    i32 4, label %38
  ]

38:                                               ; preds = %36, %36
  %39 = tail call i64 @write(i32 noundef %0, ptr noundef %.030.ph95, i64 noundef %.031.ph93) #12
  %40 = and i64 %39, 2147483648
  %.not49 = icmp eq i64 %40, 0
  br i1 %.not49, label %.split81.us, label %36

.split84.us:                                      ; preds = %36
  %41 = tail call i32 @get_log_level() #12
  %42 = icmp sgt i32 %41, 4
  br i1 %42, label %43, label %.thread

43:                                               ; preds = %.split84.us
  tail call void (i32, ptr, ...) @log_var(i32 noundef 5, ptr noundef nonnull @.str.38, ptr noundef nonnull @.str.39, i32 noundef 631, ptr noundef nonnull @__func__.cgroup_write_state, i64 noundef %.031.ph93, i32 noundef %13) #12
  br label %.thread

.split81.us:                                      ; preds = %38, %.lr.ph79.split
  %.us-phi82 = phi i64 [ %33, %.lr.ph79.split ], [ %39, %38 ]
  %44 = and i64 %.us-phi82, 2147483647
  %45 = getelementptr inbounds nuw i8, ptr %.030.ph95, i64 %44
  %46 = sub i64 %.031.ph93, %44
  %.not50 = icmp eq i64 %46, 0
  br i1 %.not50, label %.thread, label %47

47:                                               ; preds = %.split81.us
  %48 = tail call i32 @get_log_level() #12
  %49 = icmp sgt i32 %48, 6
  br i1 %49, label %50, label %.lr.ph79.split.backedge

50:                                               ; preds = %47
  tail call void (i32, ptr, ...) @log_var(i32 noundef 7, ptr noundef nonnull @.str.40, ptr noundef nonnull @.str.39, i32 noundef 631, ptr noundef nonnull @__func__.cgroup_write_state, i64 noundef %46, i32 noundef %13) #12
  br label %.lr.ph79.split.backedge

.lr.ph79.split.backedge:                          ; preds = %50, %47
  br label %.lr.ph79.split, !llvm.loop !13

.thread:                                          ; preds = %.split81.us, %.split84.us, %43, %.split67.us, %24, %.outer60._crit_edge
  %.0 = phi i32 [ 0, %.outer60._crit_edge ], [ -1, %24 ], [ -1, %.split67.us ], [ -1, %43 ], [ -1, %.split84.us ], [ 0, %.split81.us ]
  call void @llvm.lifetime.end.p0(i64 4, ptr nonnull %2) #12
  ret i32 %.0
}